(dp0
S'Men'
p1
S'fashion-mens'
p2
sS'Collectibles & Fine Art'
p3
S'collectibles'
p4
sS'Girls'
p5
S'fashion-girls'
p6
sS'Industrial & Scientific'
p7
S'industrial'
p8
sS'Clothing, Shoes & Jewelry'
p9
S'fashion'
p10
sS'Luggage & Travel Gear'
p11
S'fashion-luggage'
p12
sS'Amazon Video'
p13
S'instant-video'
p14
sS'CDs & Vinyl'
p15
S'popular'
p16
sS'Electronics'
p17
S'electronics'
p18
sS'Video Games'
p19
S'videogames'
p20
sS'Automotive'
p21
S'automotive'
p22
sS'Apps & Games'
p23
S'mobile-apps'
p24
sS'Boys'
p25
S'fashion-boys'
p26
sS'Prime Pantry'
p27
S'pantry'
p28
sS'Grocery & Gourmet Food'
p29
S'grocery'
p30
sS'Baby'
p31
S'fashion-baby'
p32
sS'Wine'
p33
S'wine'
p34
sS'Kindle Store'
p35
S'digital-text'
p36
sS'Magazine Subscriptions'
p37
S'magazines'
p38
sS'Women'
p39
S'fashion-womens'
p40
sS'Home & Business Services'
p41
S'local-services'
p42
sS'Credit and Payment Cards'
p43
S'financial'
p44
sS'Patio, Lawn & Garden'
p45
S'lawngarden'
p46
sS'Pet Supplies'
p47
S'pets'
p48
sS'Handmade'
p49
S'handmade'
p50
sS'Amazon Warehouse Deals'
p51
S'warehouse-deals'
p52
sS'Computers'
p53
S'computers'
p54
sS'Digital Music'
p55
S'digital-music'
p56
sS'Arts, Crafts & Sewing'
p57
S'arts-crafts'
p58
sS'Office Products'
p59
S'office-products'
p60
sS'Musical Instruments'
p61
S'mi'
p62
sS'Health, Household & Baby Care'
p63
S'hpc'
p64
sS'Tools & Home Improvement'
p65
S'tools'
p66
sS'Software'
p67
S'software'
p68
sS'Gift Cards'
p69
S'gift-cards'
p70
sS'Toys & Games'
p71
S'toys-and-games'
p72
sS'Luxury Beauty'
p73
S'luxury-beauty'
p74
sS'Cell Phones & Accessories'
p75
S'mobile'
p76
sS'Movies & TV'
p77
S'movies-tv'
p78
sS'Books'
p79
S'stripbooks'
p80
sS'Appliances'
p81
S'appliances'
p82
sS'Home & Kitchen'
p83
S'garden'
p84
sS'Sports & Outdoors'
p85
S'sporting'
p86
sS'Beauty & Personal Care'
p87
S'beauty'
p88
s.