(dp0
S'Video Games'
p1
S'2636'
p2
sS'Household Essentials'
p3
S'1115193'
p4
sS'Patio & Garden'
p5
S'5428'
p6
sS'Pharmacy'
p7
S'5431'
p8
sS'Music'
p9
S'4104'
p10
sS'Pets'
p11
S'5440'
p12
sS'Party & Occasions'
p13
S'2637'
p14
sS'Electronics'
p15
S'3944'
p16
sS'Jewelry'
p17
S'3891'
p18
sS'Home Improvement'
p19
S'1072864'
p20
sS'Beauty'
p21
S'1085666'
p22
sS'Food'
p23
S'976759'
p24
sS'Photo Center'
p25
S'5426'
p26
sS'Auto & Tires'
p27
S'91083'
p28
sS'Baby'
p29
S'5427'
p30
sS'Sports & Outdoors'
p31
S'4125'
p32
sS'Cell Phones'
p33
S'1105910'
p34
sS'Movies'
p35
S'4096'
p36
sS'Home'
p37
S'4044'
p38
sS'Office'
p39
S'1229749'
p40
sS'Clothing'
p41
S'5438'
p42
sS'Books'
p43
S'3920'
p44
sS'Toys'
p45
S'4171'
p46
sS'Health'
p47
S'976760'
p48
sS'Gifts & Registry'
p49
S'1094765'
p50
s.